; Function Attrs: mustprogress nounwind uwtable
define internal fastcc void @_ZNK9grpc_core11UnrefDeleteclIKNS_12_GLOBAL__N_118OutlierDetectionLb13EndpointStateEEEvPT_(ptr noundef nonnull %0) unnamed_addr #5 align 2 personality ptr @__gxx_personality_v0 {
  %2 = getelementptr inbounds nuw i8, ptr %0, i64 72
  %3 = load ptr, ptr %2, align 8, !tbaa !210
  %.not.i.i = icmp eq ptr %3, null
  br i1 %.not.i.i, label %_ZNSt10unique_ptrIN9grpc_core12_GLOBAL__N_118OutlierDetectionLb13EndpointState6BucketESt14default_deleteIS4_EED2Ev.exit.i, label %_ZNKSt14default_deleteIN9grpc_core12_GLOBAL__N_118OutlierDetectionLb13EndpointState6BucketEEclEPS4_.exit.i.i

_ZNKSt14default_deleteIN9grpc_core12_GLOBAL__N_118OutlierDetectionLb13EndpointState6BucketEEclEPS4_.exit.i.i: ; preds = %1
  tail call void @_ZdlPvm(ptr noundef nonnull %3, i64 noundef 16) #40
  br label %_ZNSt10unique_ptrIN9grpc_core12_GLOBAL__N_118OutlierDetectionLb13EndpointState6BucketESt14default_deleteIS4_EED2Ev.exit.i

_ZNSt10unique_ptrIN9grpc_core12_GLOBAL__N_118OutlierDetectionLb13EndpointState6BucketESt14default_deleteIS4_EED2Ev.exit.i: ; preds = %_ZNKSt14default_deleteIN9grpc_core12_GLOBAL__N_118OutlierDetectionLb13EndpointState6BucketEEclEPS4_.exit.i.i, %1
  store ptr null, ptr %2, align 8, !tbaa !210
  %4 = getelementptr inbounds nuw i8, ptr %0, i64 64
  %5 = load ptr, ptr %4, align 8, !tbaa !210
  %.not.i1.i = icmp eq ptr %5, null
  br i1 %.not.i1.i, label %_ZN9grpc_core12_GLOBAL__N_118OutlierDetectionLb13EndpointStateD2Ev.exit, label %_ZNKSt14default_deleteIN9grpc_core12_GLOBAL__N_118OutlierDetectionLb13EndpointState6BucketEEclEPS4_.exit.i2.i

_ZNKSt14default_deleteIN9grpc_core12_GLOBAL__N_118OutlierDetectionLb13EndpointState6BucketEEclEPS4_.exit.i2.i: ; preds = %_ZNSt10unique_ptrIN9grpc_core12_GLOBAL__N_118OutlierDetectionLb13EndpointState6BucketESt14default_deleteIS4_EED2Ev.exit.i
  tail call void @_ZdlPvm(ptr noundef nonnull %5, i64 noundef 16) #40
  br label %_ZN9grpc_core12_GLOBAL__N_118OutlierDetectionLb13EndpointStateD2Ev.exit

_ZN9grpc_core12_GLOBAL__N_118OutlierDetectionLb13EndpointStateD2Ev.exit: ; preds = %_ZNSt10unique_ptrIN9grpc_core12_GLOBAL__N_118OutlierDetectionLb13EndpointState6BucketESt14default_deleteIS4_EED2Ev.exit.i, %_ZNKSt14default_deleteIN9grpc_core12_GLOBAL__N_118OutlierDetectionLb13EndpointState6BucketEEclEPS4_.exit.i2.i
  store ptr null, ptr %4, align 8, !tbaa !210
  %6 = getelementptr inbounds nuw i8, ptr %0, i64 32
  %.val.i = load ptr, ptr %6, align 8, !tbaa !37
  tail call fastcc void @_ZNSt8_Rb_treeIPN9grpc_core12_GLOBAL__N_118OutlierDetectionLb15SubchannelStateES4_St9_IdentityIS4_ESt4lessIS4_ESaIS4_EE8_M_eraseEPSt13_Rb_tree_nodeIS4_E(ptr noundef %.val.i)
  tail call void @_ZdlPvm(ptr noundef nonnull %0, i64 noundef 112) #40
  ret void
}